; Function Attrs: mustprogress nounwind uwtable
define hidden void @_ZN27JvmtiClassFileReconstituter8write_u4Ej(ptr nocapture noundef nonnull align 8 dereferenceable(88) %0, i32 noundef %1) local_unnamed_addr #0 align 2 {
  %3 = getelementptr inbounds i8, ptr %0, i64 72
  %4 = load ptr, ptr %3, align 8
  %5 = getelementptr inbounds i8, ptr %0, i64 64
  %6 = load ptr, ptr %5, align 8
  %7 = ptrtoint ptr %4 to i64
  %8 = ptrtoint ptr %6 to i64
  %9 = sub i64 %7, %8
  %10 = add i64 %9, 4
  %11 = getelementptr inbounds i8, ptr %0, i64 56
  %12 = load i64, ptr %11, align 8
  %.not.i = icmp ult i64 %10, %12
  br i1 %.not.i, label %_ZN27JvmtiClassFileReconstituter17writeable_addressEm.exit, label %13

13:                                               ; preds = %2
  %14 = shl i64 %12, 1
  %15 = add i64 %14, 5
  %16 = and i64 %15, -1024
  %17 = tail call noundef ptr @_Z25resource_reallocate_bytesPcmmN17AllocFailStrategy13AllocFailEnumE(ptr noundef %6, i64 noundef %12, i64 noundef %16, i32 noundef 0) #12
  store ptr %17, ptr %5, align 8
  store i64 %16, ptr %11, align 8
  %18 = getelementptr inbounds i8, ptr %17, i64 %9
  %.pre = ptrtoint ptr %18 to i64
  br label %_ZN27JvmtiClassFileReconstituter17writeable_addressEm.exit

_ZN27JvmtiClassFileReconstituter17writeable_addressEm.exit: ; preds = %2, %13
  %.pre-phi = phi i64 [ %7, %2 ], [ %.pre, %13 ]
  %19 = phi ptr [ %4, %2 ], [ %18, %13 ]
  %20 = getelementptr inbounds i8, ptr %19, i64 4
  store ptr %20, ptr %3, align 8
  %21 = tail call noundef i32 @llvm.bswap.i32(i32 %1)
  %22 = and i64 %.pre-phi, 3
  %23 = icmp eq i64 %22, 0
  br i1 %23, label %24, label %25

24:                                               ; preds = %_ZN27JvmtiClassFileReconstituter17writeable_addressEm.exit
  store i32 %21, ptr %19, align 4
  br label %_ZN5Bytes11put_Java_u4EPhj.exit

25:                                               ; preds = %_ZN27JvmtiClassFileReconstituter17writeable_addressEm.exit
  store i32 %21, ptr %19, align 1
  br label %_ZN5Bytes11put_Java_u4EPhj.exit

_ZN5Bytes11put_Java_u4EPhj.exit:                  ; preds = %24, %25
  ret void
}